target datalayout = "e-m:e-p270:32:32-p271:32:32-p272:64:64-i64:64-i128:128-f80:128-n8:16:32:64-S128"
target triple = "x86_64-pc-linux-gnu"

%struct.AVFormatContext = type { ptr, ptr, ptr, ptr, ptr, i32, i32, ptr, i32, ptr, i32, ptr, ptr, i64, i64, i64, i32, i32, i32, i64, i64, ptr, i32, i32, ptr, i32, i32, i32, i32, ptr, i64, i32, i32, %struct.AVIOInterruptCB, i32, i32, i32, i32, i64, i32, i32, i32, i32, i32, i32, i32, i32, i32, i32, i32, i32, i64, i32, i32, i32, i32, i32, ptr, ptr, ptr, ptr, i32, ptr, ptr, ptr, ptr, i32, ptr, ptr, i64, ptr, ptr, ptr, i64 }
%struct.AVIOInterruptCB = type { ptr, ptr }

@.str.72 = private unnamed_addr constant [56 x i8] c"utf16 local tag size %lx invalid (too large), ignoring\0A\00", align 1
@.str.73 = private unnamed_addr constant [40 x i8] c"Invalid UTF8 sequence in mxf_utf16len\0A\0A\00", align 1

; Function Attrs: nounwind uwtable
define internal i64 @mxf_utf16len(ptr noundef %0) #0 {
  %2 = alloca ptr, align 8
  %3 = alloca ptr, align 8
  %4 = alloca i64, align 8
  %5 = alloca i32, align 4
  %6 = alloca i32, align 4
  %7 = alloca i32, align 4
  %8 = alloca i32, align 4
  store ptr %0, ptr %2, align 8, !tbaa !151
  call void @llvm.lifetime.start.p0(i64 8, ptr %3) #13
  %9 = load ptr, ptr %2, align 8, !tbaa !151
  store ptr %9, ptr %3, align 8, !tbaa !151
  call void @llvm.lifetime.start.p0(i64 8, ptr %4) #13
  store i64 0, ptr %4, align 8, !tbaa !80
  br label %10

10:                                               ; preds = %76, %74, %1
  %11 = load ptr, ptr %3, align 8, !tbaa !151
  %12 = load i8, ptr %11, align 1, !tbaa !132
  %13 = icmp ne i8 %12, 0
  br i1 %13, label %14, label %77

14:                                               ; preds = %10
  call void @llvm.lifetime.start.p0(i64 4, ptr %5) #13
  %15 = load ptr, ptr %3, align 8, !tbaa !151
  %16 = getelementptr inbounds nuw i8, ptr %15, i32 1
  store ptr %16, ptr %3, align 8, !tbaa !151
  %17 = load i8, ptr %15, align 1, !tbaa !132
  %18 = zext i8 %17 to i32
  store i32 %18, ptr %5, align 4, !tbaa !57
  call void @llvm.lifetime.start.p0(i64 4, ptr %6) #13
  %19 = load i32, ptr %5, align 4, !tbaa !57
  %20 = and i32 %19, 128
  %21 = lshr i32 %20, 1
  store i32 %21, ptr %6, align 4, !tbaa !57
  %22 = load i32, ptr %5, align 4, !tbaa !57
  %23 = and i32 %22, 192
  %24 = icmp eq i32 %23, 128
  br i1 %24, label %28, label %25

25:                                               ; preds = %14
  %26 = load i32, ptr %5, align 4, !tbaa !57
  %27 = icmp uge i32 %26, 254
  br i1 %27, label %28, label %29

28:                                               ; preds = %25, %14
  store i32 4, ptr %8, align 4
  br label %61

29:                                               ; preds = %25
  br label %30

30:                                               ; preds = %54, %29
  %31 = load i32, ptr %5, align 4, !tbaa !57
  %32 = load i32, ptr %6, align 4, !tbaa !57
  %33 = and i32 %31, %32
  %34 = icmp ne i32 %33, 0
  br i1 %34, label %35, label %55

35:                                               ; preds = %30
  call void @llvm.lifetime.start.p0(i64 4, ptr %7) #13
  %36 = load ptr, ptr %3, align 8, !tbaa !151
  %37 = getelementptr inbounds nuw i8, ptr %36, i32 1
  store ptr %37, ptr %3, align 8, !tbaa !151
  %38 = load i8, ptr %36, align 1, !tbaa !132
  %39 = zext i8 %38 to i32
  %40 = sub nsw i32 %39, 128
  store i32 %40, ptr %7, align 4, !tbaa !57
  %41 = load i32, ptr %7, align 4, !tbaa !57
  %42 = lshr i32 %41, 6
  %43 = icmp ne i32 %42, 0
  br i1 %43, label %44, label %45

44:                                               ; preds = %35
  store i32 4, ptr %8, align 4
  br label %52

45:                                               ; preds = %35
  %46 = load i32, ptr %5, align 4, !tbaa !57
  %47 = shl i32 %46, 6
  %48 = load i32, ptr %7, align 4, !tbaa !57
  %49 = add i32 %47, %48
  store i32 %49, ptr %5, align 4, !tbaa !57
  %50 = load i32, ptr %6, align 4, !tbaa !57
  %51 = shl i32 %50, 5
  store i32 %51, ptr %6, align 4, !tbaa !57
  store i32 0, ptr %8, align 4
  br label %52

52:                                               ; preds = %44, %45
  call void @llvm.lifetime.end.p0(i64 4, ptr %7) #13
  %53 = load i32, ptr %8, align 4
  switch i32 %53, label %61 [
    i32 0, label %54
  ]

54:                                               ; preds = %52
  br label %30, !llvm.loop !263

55:                                               ; preds = %30
  %56 = load i32, ptr %6, align 4, !tbaa !57
  %57 = shl i32 %56, 1
  %58 = sub i32 %57, 1
  %59 = load i32, ptr %5, align 4, !tbaa !57
  %60 = and i32 %59, %58
  store i32 %60, ptr %5, align 4, !tbaa !57
  store i32 0, ptr %8, align 4
  br label %61

61:                                               ; preds = %28, %55, %52
  call void @llvm.lifetime.end.p0(i64 4, ptr %6) #13
  %62 = load i32, ptr %8, align 4
  switch i32 %62, label %74 [
    i32 0, label %63
    i32 4, label %73
  ]

63:                                               ; preds = %61
  %64 = load i32, ptr %5, align 4, !tbaa !57
  %65 = icmp ult i32 %64, 65536
  br i1 %65, label %66, label %69

66:                                               ; preds = %63
  %67 = load i64, ptr %4, align 8, !tbaa !80
  %68 = add i64 %67, 1
  store i64 %68, ptr %4, align 8, !tbaa !80
  br label %72

69:                                               ; preds = %63
  %70 = load i64, ptr %4, align 8, !tbaa !80
  %71 = add i64 %70, 2
  store i64 %71, ptr %4, align 8, !tbaa !80
  br label %72

72:                                               ; preds = %69, %66
  store i32 2, ptr %8, align 4
  br label %74, !llvm.loop !264

73:                                               ; preds = %61
  call void (ptr, i32, ptr, ...) @av_log(ptr noundef null, i32 noundef 16, ptr noundef @.str.73)
  store i32 0, ptr %8, align 4
  br label %74

74:                                               ; preds = %73, %72, %61
  call void @llvm.lifetime.end.p0(i64 4, ptr %5) #13
  %75 = load i32, ptr %8, align 4
  switch i32 %75, label %81 [
    i32 0, label %76
    i32 2, label %10
  ]

76:                                               ; preds = %74
  br label %10, !llvm.loop !264

77:                                               ; preds = %10
  %78 = load i64, ptr %4, align 8, !tbaa !80
  %79 = add i64 %78, 1
  store i64 %79, ptr %4, align 8, !tbaa !80
  %80 = load i64, ptr %4, align 8, !tbaa !80
  store i32 1, ptr %8, align 4
  call void @llvm.lifetime.end.p0(i64 8, ptr %4) #13
  call void @llvm.lifetime.end.p0(i64 8, ptr %3) #13
  ret i64 %80

81:                                               ; preds = %74
  unreachable
}

; Function Attrs: nounwind uwtable
define internal void @mxf_write_local_tag_utf16(ptr noundef %0, i32 noundef %1, ptr noundef %2) #0 {
  %4 = alloca ptr, align 8
  %5 = alloca i32, align 4
  %6 = alloca ptr, align 8
  %7 = alloca ptr, align 8
  %8 = alloca i64, align 8
  %9 = alloca i32, align 4
  store ptr %0, ptr %4, align 8, !tbaa !4
  store i32 %1, ptr %5, align 4, !tbaa !57
  store ptr %2, ptr %6, align 8, !tbaa !151
  call void @llvm.lifetime.start.p0(i64 8, ptr %7) #13
  %10 = load ptr, ptr %4, align 8, !tbaa !4
  %11 = getelementptr inbounds nuw %struct.AVFormatContext, ptr %10, i32 0, i32 4
  %12 = load ptr, ptr %11, align 8, !tbaa !30
  store ptr %12, ptr %7, align 8, !tbaa !31
  call void @llvm.lifetime.start.p0(i64 8, ptr %8) #13
  %13 = load ptr, ptr %6, align 8, !tbaa !151
  %14 = call i64 @mxf_utf16len(ptr noundef %13)
  store i64 %14, ptr %8, align 8, !tbaa !80
  %15 = load i64, ptr %8, align 8, !tbaa !80
  %16 = icmp uge i64 %15, 32767
  br i1 %16, label %17, label %19

17:                                               ; preds = %3
  %18 = load i64, ptr %8, align 8, !tbaa !80
  call void (ptr, i32, ptr, ...) @av_log(ptr noundef null, i32 noundef 16, ptr noundef @.str.72, i64 noundef %18)
  store i32 1, ptr %9, align 4
  br label %28

19:                                               ; preds = %3
  %20 = load ptr, ptr %4, align 8, !tbaa !4
  %21 = load i64, ptr %8, align 8, !tbaa !80
  %22 = mul i64 %21, 2
  %23 = trunc i64 %22 to i32
  %24 = load i32, ptr %5, align 4, !tbaa !57
  call void @mxf_write_local_tag(ptr noundef %20, i32 noundef %23, i32 noundef %24)
  %25 = load ptr, ptr %7, align 8, !tbaa !31
  %26 = load ptr, ptr %6, align 8, !tbaa !151
  %27 = call i32 @avio_put_str16be(ptr noundef %25, ptr noundef %26)
  store i32 0, ptr %9, align 4
  br label %28

28:                                               ; preds = %19, %17
  call void @llvm.lifetime.end.p0(i64 8, ptr %8) #13
  call void @llvm.lifetime.end.p0(i64 8, ptr %7) #13
  %29 = load i32, ptr %9, align 4
  switch i32 %29, label %31 [
    i32 0, label %30
    i32 1, label %30
  ]

30:                                               ; preds = %28, %28
  ret void

31:                                               ; preds = %28
  unreachable
}