; Function Attrs: nounwind uwtable
define internal fastcc void @mxf_write_local_tag_utf16(ptr noundef readonly captures(none) %0, i32 noundef range(i32 15361, 20482) %1, ptr noundef %2) unnamed_addr #0 {
  %4 = getelementptr inbounds nuw i8, ptr %0, i64 32
  %5 = load ptr, ptr %4, align 8, !tbaa !24
  %6 = load i8, ptr %2, align 1, !tbaa !54
  %.not53.i = icmp eq i8 %6, 0
  br i1 %.not53.i, label %mxf_utf16len.exit.thread, label %.lr.ph.i

.lr.ph.i:                                         ; preds = %3, %28
  %7 = phi i8 [ %29, %28 ], [ %6, %3 ]
  %.02255.i = phi ptr [ %.12342.i, %28 ], [ %2, %3 ]
  %.02954.i = phi i64 [ %.130.i, %28 ], [ 0, %3 ]
  %8 = getelementptr inbounds nuw i8, ptr %.02255.i, i64 1
  %9 = zext i8 %7 to i32
  %10 = and i32 %9, 192
  %11 = icmp eq i32 %10, 128
  %12 = icmp ugt i8 %7, -3
  %or.cond.i = or i1 %12, %11
  br i1 %or.cond.i, label %.thread44.i, label %.preheader.preheader.i

.preheader.preheader.i:                           ; preds = %.lr.ph.i
  %13 = lshr i32 %9, 1
  %14 = and i32 %13, 64
  br label %.preheader.i

.preheader.i:                                     ; preds = %16, %.preheader.preheader.i
  %.127.i = phi i32 [ %22, %16 ], [ %9, %.preheader.preheader.i ]
  %.024.i = phi i32 [ %23, %16 ], [ %14, %.preheader.preheader.i ]
  %.2.i = phi ptr [ %17, %16 ], [ %8, %.preheader.preheader.i ]
  %15 = and i32 %.024.i, %.127.i
  %.not34.i = icmp eq i32 %15, 0
  br i1 %.not34.i, label %.thread.i, label %16

16:                                               ; preds = %.preheader.i
  %17 = getelementptr inbounds nuw i8, ptr %.2.i, i64 1
  %18 = load i8, ptr %.2.i, align 1, !tbaa !54
  %19 = zext i8 %18 to i32
  %20 = add nsw i32 %19, -128
  %.not35.i = icmp ult i32 %20, 64
  %21 = shl i32 %.127.i, 6
  %22 = add nuw nsw i32 %20, %21
  %23 = shl i32 %.024.i, 5
  br i1 %.not35.i, label %.preheader.i, label %.thread44.i, !llvm.loop !247

.thread.i:                                        ; preds = %.preheader.i
  %24 = shl i32 %.024.i, 1
  %25 = add i32 %24, -1
  %26 = and i32 %25, %.127.i
  %27 = icmp ult i32 %26, 65536
  %.231.v.i = select i1 %27, i64 1, i64 2
  %.231.i = add i64 %.231.v.i, %.02954.i
  br label %28, !llvm.loop !248

.thread44.i:                                      ; preds = %16, %.lr.ph.i
  %.12349.i = phi ptr [ %8, %.lr.ph.i ], [ %17, %16 ]
  tail call void (ptr, i32, ptr, ...) @av_log(ptr noundef null, i32 noundef 16, ptr noundef nonnull @.str.73) #14
  br label %28

28:                                               ; preds = %.thread44.i, %.thread.i
  %.12342.i = phi ptr [ %.12349.i, %.thread44.i ], [ %.2.i, %.thread.i ]
  %.130.i = phi i64 [ %.02954.i, %.thread44.i ], [ %.231.i, %.thread.i ]
  %29 = load i8, ptr %.12342.i, align 1, !tbaa !54
  %.not.i = icmp eq i8 %29, 0
  br i1 %.not.i, label %mxf_utf16len.exit, label %.lr.ph.i

mxf_utf16len.exit:                                ; preds = %28
  %30 = add i64 %.130.i, 1
  %31 = icmp ugt i64 %30, 32766
  br i1 %31, label %34, label %mxf_utf16len.exit.mxf_utf16len.exit.thread_crit_edge

mxf_utf16len.exit.mxf_utf16len.exit.thread_crit_edge: ; preds = %mxf_utf16len.exit
  %.val8.pre = load ptr, ptr %4, align 8, !tbaa !24
  %32 = trunc nuw nsw i64 %30 to i32
  %33 = shl nuw nsw i32 %32, 1
  br label %mxf_utf16len.exit.thread

34:                                               ; preds = %mxf_utf16len.exit
  tail call void (ptr, i32, ptr, ...) @av_log(ptr noundef null, i32 noundef 16, ptr noundef nonnull @.str.72, i64 noundef %30) #14
  br label %37

mxf_utf16len.exit.thread:                         ; preds = %mxf_utf16len.exit.mxf_utf16len.exit.thread_crit_edge, %3
  %.val8 = phi ptr [ %.val8.pre, %mxf_utf16len.exit.mxf_utf16len.exit.thread_crit_edge ], [ %5, %3 ]
  %.029.lcssa.i10 = phi i32 [ %33, %mxf_utf16len.exit.mxf_utf16len.exit.thread_crit_edge ], [ 2, %3 ]
  %35 = getelementptr i8, ptr %0, i64 24
  %.val = load ptr, ptr %35, align 8, !tbaa !4
  tail call fastcc void @mxf_write_local_tag(ptr %.val, ptr %.val8, i32 noundef %.029.lcssa.i10, i32 noundef %1)
  %36 = tail call i32 @avio_put_str16be(ptr noundef %5, ptr noundef nonnull %2) #14
  br label %37

37:                                               ; preds = %mxf_utf16len.exit.thread, %34
  ret void
}